; Function Attrs: mustprogress uwtable
define hidden void @_ZN4lean14lambda_liftingERKNS_16elab_environmentERKNS_8pair_refINS_4nameENS_4exprEEE(ptr dead_on_unwind noalias writable sret(%"struct.std::pair") align 8 %0, ptr noundef nonnull readonly align 8 captures(none) dereferenceable(8) %1, ptr noundef nonnull align 8 dereferenceable(8) %2) local_unnamed_addr #0 personality ptr @__gxx_personality_v0 {
  %4 = alloca %"class.lean::lambda_lifting_fn", align 8
  call void @llvm.lifetime.start.p0(i64 200, ptr nonnull %4) #15
  %5 = load ptr, ptr %1, align 8, !tbaa !3
  store ptr %5, ptr %4, align 8, !tbaa !3
  %6 = ptrtoint ptr %5 to i64
  %7 = and i64 %6, 1
  %.not.i.i.i.i = icmp eq i64 %7, 0
  br i1 %.not.i.i.i.i, label %8, label %_ZN4lean16elab_environmentC2ERKS0_.exit.i

8:                                                ; preds = %3
  %.val.i.i.i.i.i = load i32, ptr %5, align 4, !tbaa !8
  %9 = icmp sgt i32 %.val.i.i.i.i.i, 0
  br i1 %9, label %10, label %12, !prof !11

10:                                               ; preds = %8
  %11 = add nuw nsw i32 %.val.i.i.i.i.i, 1
  store i32 %11, ptr %5, align 4, !tbaa !8
  br label %_ZN4lean16elab_environmentC2ERKS0_.exit.i

12:                                               ; preds = %8
  %.not.i.i.i.i.i = icmp eq i32 %.val.i.i.i.i.i, 0
  br i1 %.not.i.i.i.i.i, label %_ZN4lean16elab_environmentC2ERKS0_.exit.i, label %13

13:                                               ; preds = %12
  tail call void @lean_inc_ref_cold(ptr noundef nonnull %5)
  br label %_ZN4lean16elab_environmentC2ERKS0_.exit.i

_ZN4lean16elab_environmentC2ERKS0_.exit.i:        ; preds = %13, %12, %10, %3
  %14 = getelementptr inbounds nuw i8, ptr %4, i64 8
  invoke void @_ZN4lean14name_generatorC1Ev(ptr noundef nonnull align 8 dereferenceable(12) %14)
          to label %15 unwind label %17

15:                                               ; preds = %_ZN4lean16elab_environmentC2ERKS0_.exit.i
  %16 = getelementptr inbounds nuw i8, ptr %4, i64 24
  invoke void @_ZN4lean9local_ctxC1Ev(ptr noundef nonnull align 8 dereferenceable(8) %16)
          to label %_ZN4lean17lambda_lifting_fnC2ERKNS_16elab_environmentE.exit unwind label %19

17:                                               ; preds = %_ZN4lean16elab_environmentC2ERKS0_.exit.i
  %18 = landingpad { ptr, i32 }
          cleanup
  br label %21

19:                                               ; preds = %15
  %20 = landingpad { ptr, i32 }
          cleanup
  call void @_ZN4lean14name_generatorD2Ev(ptr noundef nonnull align 8 dereferenceable(12) %14) #15
  br label %21

common.resume:                                    ; preds = %29, %21
  %common.resume.op = phi { ptr, i32 } [ %.pn.pn.i, %21 ], [ %30, %29 ]
  resume { ptr, i32 } %common.resume.op

21:                                               ; preds = %19, %17
  %.pn.pn.i = phi { ptr, i32 } [ %20, %19 ], [ %18, %17 ]
  call void @_ZN4lean10object_refD2Ev(ptr noundef nonnull align 8 dereferenceable(196) %4) #15
  br label %common.resume

_ZN4lean17lambda_lifting_fnC2ERKNS_16elab_environmentE.exit: ; preds = %15
  %22 = getelementptr inbounds nuw i8, ptr %4, i64 32
  %23 = getelementptr inbounds nuw i8, ptr %4, i64 56
  store ptr %23, ptr %22, align 8, !tbaa !15
  %24 = getelementptr inbounds nuw i8, ptr %4, i64 40
  store i64 0, ptr %24, align 8, !tbaa !19
  %25 = getelementptr inbounds nuw i8, ptr %4, i64 48
  store i64 16, ptr %25, align 8, !tbaa !20
  %26 = getelementptr inbounds nuw i8, ptr %4, i64 184
  store ptr inttoptr (i64 1 to ptr), ptr %26, align 8, !tbaa !3
  %27 = getelementptr inbounds nuw i8, ptr %4, i64 192
  store i32 1, ptr %27, align 8, !tbaa !21
  invoke void @_ZN4lean17lambda_lifting_fnclERKNS_8pair_refINS_4nameENS_4exprEEE(ptr dead_on_unwind writable sret(%"struct.std::pair") align 8 %0, ptr noundef nonnull align 8 dereferenceable(196) %4, ptr noundef nonnull align 8 dereferenceable(8) %2)
          to label %28 unwind label %29

28:                                               ; preds = %_ZN4lean17lambda_lifting_fnC2ERKNS_16elab_environmentE.exit
  call void @_ZN4lean17lambda_lifting_fnD2Ev(ptr noundef nonnull align 8 dereferenceable(196) %4) #15
  call void @llvm.lifetime.end.p0(i64 200, ptr nonnull %4) #15
  ret void

29:                                               ; preds = %_ZN4lean17lambda_lifting_fnC2ERKNS_16elab_environmentE.exit
  %30 = landingpad { ptr, i32 }
          cleanup
  call void @_ZN4lean17lambda_lifting_fnD2Ev(ptr noundef nonnull align 8 dereferenceable(196) %4) #15
  call void @llvm.lifetime.end.p0(i64 200, ptr nonnull %4) #15
  br label %common.resume
}